; Function Attrs: nounwind uwtable
define hidden zeroext i1 @SDL_FillSurfaceRect_REAL(ptr noundef %0, ptr noundef %1, i32 noundef %2) local_unnamed_addr #0 {
  %4 = tail call zeroext i1 @SDL_SurfaceValid(ptr noundef %0) #5
  br i1 %4, label %7, label %5

5:                                                ; preds = %3
  %6 = tail call zeroext i1 (ptr, ...) @SDL_SetError_REAL(ptr noundef nonnull @.str, ptr noundef nonnull @.str.1) #5
  br label %SDL_RectEmpty.exit.thread

7:                                                ; preds = %3
  %.not = icmp eq ptr %1, null
  br i1 %.not, label %8, label %16

8:                                                ; preds = %7
  %9 = getelementptr inbounds nuw i8, ptr %0, i64 108
  %10 = load i32, ptr %9, align 4
  %11 = icmp slt i32 %10, 1
  br i1 %11, label %SDL_RectEmpty.exit.thread, label %SDL_RectEmpty.exit

SDL_RectEmpty.exit:                               ; preds = %8
  %12 = getelementptr inbounds nuw i8, ptr %0, i64 100
  %13 = getelementptr inbounds nuw i8, ptr %0, i64 112
  %14 = load i32, ptr %13, align 4
  %15 = icmp slt i32 %14, 1
  br i1 %15, label %SDL_RectEmpty.exit.thread, label %16

16:                                               ; preds = %SDL_RectEmpty.exit, %7
  %.07 = phi ptr [ %1, %7 ], [ %12, %SDL_RectEmpty.exit ]
  %17 = tail call zeroext i1 @SDL_FillSurfaceRects_REAL(ptr noundef %0, ptr noundef nonnull %.07, i32 noundef 1, i32 noundef %2)
  br label %SDL_RectEmpty.exit.thread

SDL_RectEmpty.exit.thread:                        ; preds = %8, %SDL_RectEmpty.exit, %16, %5
  %.0 = phi i1 [ %17, %16 ], [ %6, %5 ], [ true, %SDL_RectEmpty.exit ], [ true, %8 ]
  ret i1 %.0
}